   1              	 .syntax unified
   2              	 .cpu cortex-m4
   3              	 .eabi_attribute 27,3
   4              	 .fpu fpv4-sp-d16
   5              	 .eabi_attribute 20,1
   6              	 .eabi_attribute 21,1
   7              	 .eabi_attribute 23,3
   8              	 .eabi_attribute 24,1
   9              	 .eabi_attribute 25,1
  10              	 .eabi_attribute 26,1
  11              	 .eabi_attribute 30,4
  12              	 .eabi_attribute 34,1
  13              	 .eabi_attribute 18,4
  14              	 .thumb
  15              	 .file "xmc_eth_phy_dp83848.c"
  16              	 .section .text.XMC_ETH_PHY_Reset,"ax",%progbits
  17              	 .align 1
  18              	 .global XMC_ETH_PHY_Reset
  19              	 .thumb
  20              	 .thumb_func
  22              	XMC_ETH_PHY_Reset:
  23              	 
  24              	 
  25 0000 37B5     	 push {r0,r1,r2,r4,r5,lr}
  26 0002 4FF40043 	 mov r3,#32768
  27 0006 0022     	 movs r2,#0
  28 0008 0546     	 mov r5,r0
  29 000a 0C46     	 mov r4,r1
  30 000c FFF7FEFF 	 bl XMC_ETH_MAC_WritePhy
  31 0010 50B9     	 cbnz r0,.L2
  32              	.L3:
  33 0012 0DF10603 	 add r3,sp,#6
  34 0016 2846     	 mov r0,r5
  35 0018 2146     	 mov r1,r4
  36 001a 0022     	 movs r2,#0
  37 001c FFF7FEFF 	 bl XMC_ETH_MAC_ReadPhy
  38 0020 BDF90630 	 ldrsh r3,[sp,#6]
  39 0024 002B     	 cmp r3,#0
  40 0026 F4DB     	 blt .L3
  41              	.L2:
  42 0028 03B0     	 add sp,sp,#12
  43              	 
  44 002a 30BD     	 pop {r4,r5,pc}
  46              	 .section .text.XMC_ETH_PHY_Init,"ax",%progbits
  47              	 .align 1
  48              	 .global XMC_ETH_PHY_Init
  49              	 .thumb
  50              	 .thumb_func
  52              	XMC_ETH_PHY_Init:
  53              	 
  54              	 
  55 0000 F7B5     	 push {r0,r1,r2,r4,r5,r6,r7,lr}
  56 0002 1546     	 mov r5,r2
  57 0004 01AB     	 add r3,sp,#4
  58 0006 0222     	 movs r2,#2
  59 0008 0746     	 mov r7,r0
  60 000a 0E46     	 mov r6,r1
  61 000c FFF7FEFF 	 bl XMC_ETH_MAC_ReadPhy
  62 0010 08B1     	 cbz r0,.L7
  63              	.L9:
  64 0012 0420     	 movs r0,#4
  65 0014 4AE0     	 b .L11
  66              	.L7:
  67 0016 3846     	 mov r0,r7
  68 0018 3146     	 mov r1,r6
  69 001a 0322     	 movs r2,#3
  70 001c 0DF10603 	 add r3,sp,#6
  71 0020 FFF7FEFF 	 bl XMC_ETH_MAC_ReadPhy
  72 0024 0028     	 cmp r0,#0
  73 0026 F4D1     	 bne .L9
  74 0028 BDF80430 	 ldrh r3,[sp,#4]
  75 002c B3F5005F 	 cmp r3,#8192
  76 0030 0ED1     	 bne .L20
  77 0032 BDF80630 	 ldrh r3,[sp,#6]
  78 0036 23F00F03 	 bic r3,r3,#15
  79 003a 9BB2     	 uxth r3,r3
  80 003c 45F69042 	 movw r2,#23696
  81 0040 9342     	 cmp r3,r2
  82 0042 05D1     	 bne .L20
  83 0044 3846     	 mov r0,r7
  84 0046 3146     	 mov r1,r6
  85 0048 FFF7FEFF 	 bl XMC_ETH_PHY_Reset
  86 004c 10B1     	 cbz r0,.L29
  87 004e 2DE0     	 b .L11
  88              	.L20:
  89 0050 0320     	 movs r0,#3
  90 0052 2BE0     	 b .L11
  91              	.L29:
  92 0054 6B88     	 ldrh r3,[r5,#2]
  93 0056 B3F5804F 	 cmp r3,#16384
  94 005a AB88     	 ldrh r3,[r5,#4]
  95 005c 0CBF     	 ite eq
  96 005e 4FF40054 	 moveq r4,#8192
  97 0062 0024     	 movne r4,#0
  98 0064 B3F5006F 	 cmp r3,#2048
  99 0068 AB79     	 ldrb r3,[r5,#6]
 100 006a 04BF     	 itt eq
 101 006c 44F48074 	 orreq r4,r4,#256
 102 0070 A4B2     	 uxtheq r4,r4
 103 0072 13B1     	 cbz r3,.L14
 104 0074 44F48054 	 orr r4,r4,#4096
 105 0078 A4B2     	 uxth r4,r4
 106              	.L14:
 107 007a EB79     	 ldrb r3,[r5,#7]
 108 007c 13B1     	 cbz r3,.L15
 109 007e 44F48044 	 orr r4,r4,#16384
 110 0082 A4B2     	 uxth r4,r4
 111              	.L15:
 112 0084 3846     	 mov r0,r7
 113 0086 3146     	 mov r1,r6
 114 0088 0022     	 movs r2,#0
 115 008a 2346     	 mov r3,r4
 116 008c FFF7FEFF 	 bl XMC_ETH_MAC_WritePhy
 117 0090 60B9     	 cbnz r0,.L11
 118 0092 2B78     	 ldrb r3,[r5]
 119 0094 1BB1     	 cbz r3,.L17
 120 0096 012B     	 cmp r3,#1
 121 0098 08BF     	 it eq
 122 009a 2124     	 moveq r4,#33
 123 009c 00E0     	 b .L16
 124              	.L17:
 125 009e 0124     	 movs r4,#1
 126              	.L16:
 127 00a0 3846     	 mov r0,r7
 128 00a2 3146     	 mov r1,r6
 129 00a4 1722     	 movs r2,#23
 130 00a6 2346     	 mov r3,r4
 131 00a8 FFF7FEFF 	 bl XMC_ETH_MAC_WritePhy
 132              	.L11:
 133 00ac 03B0     	 add sp,sp,#12
 134              	 
 135 00ae F0BD     	 pop {r4,r5,r6,r7,pc}
 137              	 .section .text.XMC_ETH_PHY_PowerDown,"ax",%progbits
 138              	 .align 1
 139              	 .global XMC_ETH_PHY_PowerDown
 140              	 .thumb
 141              	 .thumb_func
 143              	XMC_ETH_PHY_PowerDown:
 144              	 
 145              	 
 146 0000 37B5     	 push {r0,r1,r2,r4,r5,lr}
 147 0002 0022     	 movs r2,#0
 148 0004 0DF10603 	 add r3,sp,#6
 149 0008 0546     	 mov r5,r0
 150 000a 0C46     	 mov r4,r1
 151 000c FFF7FEFF 	 bl XMC_ETH_MAC_ReadPhy
 152 0010 0246     	 mov r2,r0
 153 0012 58B9     	 cbnz r0,.L31
 154 0014 BDF80630 	 ldrh r3,[sp,#6]
 155 0018 43F40063 	 orr r3,r3,#2048
 156 001c 9BB2     	 uxth r3,r3
 157 001e 2846     	 mov r0,r5
 158 0020 2146     	 mov r1,r4
 159 0022 ADF80630 	 strh r3,[sp,#6]
 160 0026 FFF7FEFF 	 bl XMC_ETH_MAC_WritePhy
 161 002a 0246     	 mov r2,r0
 162              	.L31:
 163 002c 1046     	 mov r0,r2
 164 002e 03B0     	 add sp,sp,#12
 165              	 
 166 0030 30BD     	 pop {r4,r5,pc}
 168              	 .section .text.XMC_ETH_PHY_ExitPowerDown,"ax",%progbits
 169              	 .align 1
 170              	 .global XMC_ETH_PHY_ExitPowerDown
 171              	 .thumb
 172              	 .thumb_func
 174              	XMC_ETH_PHY_ExitPowerDown:
 175              	 
 176              	 
 177 0000 37B5     	 push {r0,r1,r2,r4,r5,lr}
 178 0002 0022     	 movs r2,#0
 179 0004 0DF10603 	 add r3,sp,#6
 180 0008 0546     	 mov r5,r0
 181 000a 0C46     	 mov r4,r1
 182 000c FFF7FEFF 	 bl XMC_ETH_MAC_ReadPhy
 183 0010 0246     	 mov r2,r0
 184 0012 58B9     	 cbnz r0,.L33
 185 0014 BDF80630 	 ldrh r3,[sp,#6]
 186 0018 23F40063 	 bic r3,r3,#2048
 187 001c 9BB2     	 uxth r3,r3
 188 001e 2846     	 mov r0,r5
 189 0020 2146     	 mov r1,r4
 190 0022 ADF80630 	 strh r3,[sp,#6]
 191 0026 FFF7FEFF 	 bl XMC_ETH_MAC_WritePhy
 192 002a 0246     	 mov r2,r0
 193              	.L33:
 194 002c 1046     	 mov r0,r2
 195 002e 03B0     	 add sp,sp,#12
 196              	 
 197 0030 30BD     	 pop {r4,r5,pc}
 199              	 .section .text.XMC_ETH_PHY_GetLinkStatus,"ax",%progbits
 200              	 .align 1
 201              	 .global XMC_ETH_PHY_GetLinkStatus
 202              	 .thumb
 203              	 .thumb_func
 205              	XMC_ETH_PHY_GetLinkStatus:
 206              	 
 207              	 
 208 0000 07B5     	 push {r0,r1,r2,lr}
 209 0002 0122     	 movs r2,#1
 210 0004 0DF10603 	 add r3,sp,#6
 211 0008 FFF7FEFF 	 bl XMC_ETH_MAC_ReadPhy
 212 000c BDF80600 	 ldrh r0,[sp,#6]
 213 0010 C0F38000 	 ubfx r0,r0,#2,#1
 214 0014 03B0     	 add sp,sp,#12
 215              	 
 216 0016 5DF804FB 	 ldr pc,[sp],#4
 218              	 .section .text.XMC_ETH_PHY_GetLinkSpeed,"ax",%progbits
 219              	 .align 1
 220              	 .global XMC_ETH_PHY_GetLinkSpeed
 221              	 .thumb
 222              	 .thumb_func
 224              	XMC_ETH_PHY_GetLinkSpeed:
 225              	 
 226              	 
 227 0000 07B5     	 push {r0,r1,r2,lr}
 228 0002 1022     	 movs r2,#16
 229 0004 0DF10603 	 add r3,sp,#6
 230 0008 FFF7FEFF 	 bl XMC_ETH_MAC_ReadPhy
 231 000c BDF80630 	 ldrh r3,[sp,#6]
 232 0010 13F0020F 	 tst r3,#2
 233 0014 0CBF     	 ite eq
 234 0016 4FF48040 	 moveq r0,#16384
 235 001a 0020     	 movne r0,#0
 236 001c 03B0     	 add sp,sp,#12
 237              	 
 238 001e 5DF804FB 	 ldr pc,[sp],#4
 240              	 .section .text.XMC_ETH_PHY_GetLinkDuplex,"ax",%progbits
 241              	 .align 1
 242              	 .global XMC_ETH_PHY_GetLinkDuplex
 243              	 .thumb
 244              	 .thumb_func
 246              	XMC_ETH_PHY_GetLinkDuplex:
 247              	 
 248              	 
 249 0000 07B5     	 push {r0,r1,r2,lr}
 250 0002 1022     	 movs r2,#16
 251 0004 0DF10603 	 add r3,sp,#6
 252 0008 FFF7FEFF 	 bl XMC_ETH_MAC_ReadPhy
 253 000c BDF80630 	 ldrh r3,[sp,#6]
 254 0010 13F0040F 	 tst r3,#4
 255 0014 14BF     	 ite ne
 256 0016 4FF40060 	 movne r0,#2048
 257 001a 0020     	 moveq r0,#0
 258 001c 03B0     	 add sp,sp,#12
 259              	 
 260 001e 5DF804FB 	 ldr pc,[sp],#4
 262              	 .section .text.XMC_ETH_PHY_IsAutonegotiationCompleted,"ax",%progbits
 263              	 .align 1
 264              	 .global XMC_ETH_PHY_IsAutonegotiationCompleted
 265              	 .thumb
 266              	 .thumb_func
 268              	XMC_ETH_PHY_IsAutonegotiationCompleted:
 269              	 
 270              	 
 271 0000 07B5     	 push {r0,r1,r2,lr}
 272 0002 0122     	 movs r2,#1
 273 0004 0DF10603 	 add r3,sp,#6
 274 0008 FFF7FEFF 	 bl XMC_ETH_MAC_ReadPhy
 275 000c BDF80600 	 ldrh r0,[sp,#6]
 276 0010 C0F34010 	 ubfx r0,r0,#5,#1
 277 0014 03B0     	 add sp,sp,#12
 278              	 
 279 0016 5DF804FB 	 ldr pc,[sp],#4
 281              	 .ident "GCC: (GNU Tools for ARM Embedded Processors) 4.9.3 20141119 (release) [ARM/embedded-4_9-branch revision 218278]"
DEFINED SYMBOLS
                            *ABS*:00000000 xmc_eth_phy_dp83848.c
    {standard input}:17     .text.XMC_ETH_PHY_Reset:00000000 $t
    {standard input}:22     .text.XMC_ETH_PHY_Reset:00000000 XMC_ETH_PHY_Reset
    {standard input}:47     .text.XMC_ETH_PHY_Init:00000000 $t
    {standard input}:52     .text.XMC_ETH_PHY_Init:00000000 XMC_ETH_PHY_Init
    {standard input}:138    .text.XMC_ETH_PHY_PowerDown:00000000 $t
    {standard input}:143    .text.XMC_ETH_PHY_PowerDown:00000000 XMC_ETH_PHY_PowerDown
    {standard input}:169    .text.XMC_ETH_PHY_ExitPowerDown:00000000 $t
    {standard input}:174    .text.XMC_ETH_PHY_ExitPowerDown:00000000 XMC_ETH_PHY_ExitPowerDown
    {standard input}:200    .text.XMC_ETH_PHY_GetLinkStatus:00000000 $t
    {standard input}:205    .text.XMC_ETH_PHY_GetLinkStatus:00000000 XMC_ETH_PHY_GetLinkStatus
    {standard input}:219    .text.XMC_ETH_PHY_GetLinkSpeed:00000000 $t
    {standard input}:224    .text.XMC_ETH_PHY_GetLinkSpeed:00000000 XMC_ETH_PHY_GetLinkSpeed
    {standard input}:241    .text.XMC_ETH_PHY_GetLinkDuplex:00000000 $t
    {standard input}:246    .text.XMC_ETH_PHY_GetLinkDuplex:00000000 XMC_ETH_PHY_GetLinkDuplex
    {standard input}:263    .text.XMC_ETH_PHY_IsAutonegotiationCompleted:00000000 $t
    {standard input}:268    .text.XMC_ETH_PHY_IsAutonegotiationCompleted:00000000 XMC_ETH_PHY_IsAutonegotiationCompleted

UNDEFINED SYMBOLS
XMC_ETH_MAC_WritePhy
XMC_ETH_MAC_ReadPhy
