   1              	 .syntax unified
   2              	 .cpu cortex-m4
   3              	 .eabi_attribute 27,3
   4              	 .fpu fpv4-sp-d16
   5              	 .eabi_attribute 20,1
   6              	 .eabi_attribute 21,1
   7              	 .eabi_attribute 23,3
   8              	 .eabi_attribute 24,1
   9              	 .eabi_attribute 25,1
  10              	 .eabi_attribute 26,1
  11              	 .eabi_attribute 30,4
  12              	 .eabi_attribute 34,1
  13              	 .eabi_attribute 18,4
  14              	 .thumb
  15              	 .file "tcp_out.c"
  16              	 .section .text.tcp_pbuf_prealloc,"ax",%progbits
  17              	 .align 1
  18              	 .thumb
  19              	 .thumb_func
  21              	tcp_pbuf_prealloc:
  22              	 
  23              	 
  24 0000 38B5     	 push {r3,r4,r5,lr}
  25 0002 9142     	 cmp r1,r2
  26 0004 1D46     	 mov r5,r3
  27 0006 0C46     	 mov r4,r1
  28 0008 049B     	 ldr r3,[sp,#16]
  29 000a 16D2     	 bcs .L7
  30 000c 9DF81410 	 ldrb r1,[sp,#20]
  31 0010 8907     	 lsls r1,r1,#30
  32 0012 09D4     	 bmi .L3
  33 0014 598B     	 ldrh r1,[r3,#26]
  34 0016 4906     	 lsls r1,r1,#25
  35 0018 0FD4     	 bmi .L7
  36 001a 9DF81810 	 ldrb r1,[sp,#24]
  37 001e 19B1     	 cbz r1,.L3
  38 0020 996E     	 ldr r1,[r3,#104]
  39 0022 09B9     	 cbnz r1,.L3
  40 0024 DB6E     	 ldr r3,[r3,#108]
  41 0026 43B1     	 cbz r3,.L7
  42              	.L3:
  43 0028 04F21B21 	 addw r1,r4,#539
  44 002c 21F00301 	 bic r1,r1,#3
  45 0030 8A42     	 cmp r2,r1
  46 0032 28BF     	 it cs
  47 0034 0A46     	 movcs r2,r1
  48 0036 91B2     	 uxth r1,r2
  49 0038 00E0     	 b .L2
  50              	.L7:
  51 003a 2146     	 mov r1,r4
  52              	.L2:
  53 003c 0022     	 movs r2,#0
  54 003e FFF7FEFF 	 bl pbuf_alloc
  55 0042 20B1     	 cbz r0,.L4
  56 0044 4289     	 ldrh r2,[r0,#10]
  57 0046 121B     	 subs r2,r2,r4
  58 0048 2A80     	 strh r2,[r5]
  59 004a 0481     	 strh r4,[r0,#8]
  60 004c 4481     	 strh r4,[r0,#10]
  61              	.L4:
  62 004e 38BD     	 pop {r3,r4,r5,pc}
  64              	 .section .text.tcp_create_segment,"ax",%progbits
  65              	 .align 1
  66              	 .thumb
  67              	 .thumb_func
  69              	tcp_create_segment:
  70              	 
  71              	 
  72 0000 2DE9F84F 	 push {r3,r4,r5,r6,r7,r8,r9,r10,fp,lr}
  73 0004 9DF828B0 	 ldrb fp,[sp,#40]
  74 0008 0746     	 mov r7,r0
  75 000a 1BF0010F 	 tst fp,#1
  76 000e 4FF00400 	 mov r0,#4
  77 0012 0E46     	 mov r6,r1
  78 0014 9146     	 mov r9,r2
  79 0016 9A46     	 mov r10,r3
  80 0018 14BF     	 ite ne
  81 001a 0425     	 movne r5,#4
  82 001c 0025     	 moveq r5,#0
  83 001e FFF7FEFF 	 bl memp_malloc
  84 0022 4FF00008 	 mov r8,#0
  85 0026 0446     	 mov r4,r0
  86 0028 18B9     	 cbnz r0,.L17
  87 002a 3046     	 mov r0,r6
  88 002c FFF7FEFF 	 bl pbuf_free
  89 0030 38E0     	 b .L21
  90              	.L17:
  91 0032 80F80AB0 	 strb fp,[r0,#10]
  92 0036 3389     	 ldrh r3,[r6,#8]
  93 0038 4660     	 str r6,[r0,#4]
  94 003a 5B1B     	 subs r3,r3,r5
  95 003c C0F80080 	 str r8,[r0]
  96 0040 0381     	 strh r3,[r0,#8]
  97 0042 1421     	 movs r1,#20
  98 0044 3046     	 mov r0,r6
  99 0046 FFF7FEFF 	 bl pbuf_header
 100 004a 0646     	 mov r6,r0
 101 004c 28B1     	 cbz r0,.L19
 102 004e 2046     	 mov r0,r4
 103 0050 FFF7FEFF 	 bl tcp_seg_free
 104 0054 4046     	 mov r0,r8
 105 0056 BDE8F88F 	 pop {r3,r4,r5,r6,r7,r8,r9,r10,fp,pc}
 106              	.L19:
 107 005a 6368     	 ldr r3,[r4,#4]
 108 005c F88A     	 ldrh r0,[r7,#22]
 109 005e D3F80480 	 ldr r8,[r3,#4]
 110 0062 C4F80C80 	 str r8,[r4,#12]
 111 0066 FFF7FEFF 	 bl lwip_htons
 112 006a A8F80000 	 strh r0,[r8]
 113 006e 388B     	 ldrh r0,[r7,#24]
 114 0070 D4F80C80 	 ldr r8,[r4,#12]
 115 0074 FFF7FEFF 	 bl lwip_htons
 116 0078 A8F80200 	 strh r0,[r8,#2]
 117 007c 5046     	 mov r0,r10
 118 007e E768     	 ldr r7,[r4,#12]
 119 0080 FFF7FEFF 	 bl lwip_htonl
 120 0084 7860     	 str r0,[r7,#4]
 121 0086 002D     	 cmp r5,#0
 122 0088 14BF     	 ite ne
 123 008a 4FF4C040 	 movne r0,#24576
 124 008e 4FF4A040 	 moveq r0,#20480
 125 0092 40EA0900 	 orr r0,r0,r9
 126 0096 E768     	 ldr r7,[r4,#12]
 127 0098 FFF7FEFF 	 bl lwip_htons
 128 009c E368     	 ldr r3,[r4,#12]
 129 009e B881     	 strh r0,[r7,#12]
 130 00a0 9E74     	 strb r6,[r3,#18]
 131 00a2 DE74     	 strb r6,[r3,#19]
 132              	.L21:
 133 00a4 2046     	 mov r0,r4
 134 00a6 BDE8F88F 	 pop {r3,r4,r5,r6,r7,r8,r9,r10,fp,pc}
 136              	 .section .text.tcp_output_alloc_header.constprop.0,"ax",%progbits
 137              	 .align 1
 138              	 .thumb
 139              	 .thumb_func
 141              	tcp_output_alloc_header.constprop.0:
 142              	 
 143              	 
 144 0000 1431     	 adds r1,r1,#20
 145 0002 F8B5     	 push {r3,r4,r5,r6,r7,lr}
 146 0004 89B2     	 uxth r1,r1
 147 0006 0546     	 mov r5,r0
 148 0008 1746     	 mov r7,r2
 149 000a 0120     	 movs r0,#1
 150 000c 0022     	 movs r2,#0
 151 000e FFF7FEFF 	 bl pbuf_alloc
 152 0012 0646     	 mov r6,r0
 153 0014 F8B1     	 cbz r0,.L23
 154 0016 4468     	 ldr r4,[r0,#4]
 155 0018 E88A     	 ldrh r0,[r5,#22]
 156 001a FFF7FEFF 	 bl lwip_htons
 157 001e 2080     	 strh r0,[r4]
 158 0020 288B     	 ldrh r0,[r5,#24]
 159 0022 FFF7FEFF 	 bl lwip_htons
 160 0026 6760     	 str r7,[r4,#4]
 161 0028 6080     	 strh r0,[r4,#2]
 162 002a 686A     	 ldr r0,[r5,#36]
 163 002c FFF7FEFF 	 bl lwip_htonl
 164 0030 A060     	 str r0,[r4,#8]
 165 0032 45F21000 	 movw r0,#20496
 166 0036 FFF7FEFF 	 bl lwip_htons
 167 003a A081     	 strh r0,[r4,#12]
 168 003c 688D     	 ldrh r0,[r5,#42]
 169 003e FFF7FEFF 	 bl lwip_htons
 170 0042 0023     	 movs r3,#0
 171 0044 2374     	 strb r3,[r4,#16]
 172 0046 6374     	 strb r3,[r4,#17]
 173 0048 A374     	 strb r3,[r4,#18]
 174 004a E374     	 strb r3,[r4,#19]
 175 004c 6A8D     	 ldrh r2,[r5,#42]
 176 004e 6B6A     	 ldr r3,[r5,#36]
 177 0050 E081     	 strh r0,[r4,#14]
 178 0052 1344     	 add r3,r3,r2
 179 0054 EB62     	 str r3,[r5,#44]
 180              	.L23:
 181 0056 3046     	 mov r0,r6
 182 0058 F8BD     	 pop {r3,r4,r5,r6,r7,pc}
 184              	 .section .text.tcp_write,"ax",%progbits
 185              	 .align 1
 186              	 .global tcp_write
 187              	 .thumb
 188              	 .thumb_func
 190              	tcp_write:
 191              	 
 192              	 
 193 0000 2DE9F04F 	 push {r4,r5,r6,r7,r8,r9,r10,fp,lr}
 194 0004 8FB0     	 sub sp,sp,#60
 195 0006 9346     	 mov fp,r2
 196 0008 0793     	 str r3,[sp,#28]
 197 000a 0023     	 movs r3,#0
 198 000c ADF83630 	 strh r3,[sp,#54]
 199 0010 B0F85E30 	 ldrh r3,[r0,#94]
 200 0014 428E     	 ldrh r2,[r0,#50]
 201 0016 0591     	 str r1,[sp,#20]
 202 0018 5B08     	 lsrs r3,r3,#1
 203 001a 9342     	 cmp r3,r2
 204 001c 28BF     	 it cs
 205 001e 1346     	 movcs r3,r2
 206 0020 002B     	 cmp r3,#0
 207 0022 08BF     	 it eq
 208 0024 1346     	 moveq r3,r2
 209 0026 0646     	 mov r6,r0
 210 0028 0693     	 str r3,[sp,#24]
 211 002a C1B1     	 cbz r1,.L66
 212 002c 337D     	 ldrb r3,[r6,#20]
 213 002e 072B     	 cmp r3,#7
 214 0030 03D0     	 beq .L30
 215 0032 023B     	 subs r3,r3,#2
 216 0034 022B     	 cmp r3,#2
 217 0036 00F29081 	 bhi .L67
 218              	.L30:
 219 003a BBF1000F 	 cmp fp,#0
 220 003e 00F08580 	 beq .L32
 221 0042 B6F86030 	 ldrh r3,[r6,#96]
 222 0046 5B45     	 cmp r3,fp
 223 0048 04D2     	 bcs .L33
 224              	.L34:
 225 004a 738B     	 ldrh r3,[r6,#26]
 226 004c 43F08003 	 orr r3,r3,#128
 227 0050 7383     	 strh r3,[r6,#26]
 228 0052 79E0     	 b .L79
 229              	.L33:
 230 0054 B6F86230 	 ldrh r3,[r6,#98]
 231 0058 072B     	 cmp r3,#7
 232 005a 77D9     	 bls .L32
 233 005c F5E7     	 b .L34
 234              	.L66:
 235 005e F023     	 movs r3,#240
 236 0060 7CE1     	 b .L29
 237              	.L116:
 238 0062 A37A     	 ldrb r3,[r4,#10]
 239 0064 2189     	 ldrh r1,[r4,#8]
 240 0066 13F0010F 	 tst r3,#1
 241 006a 069B     	 ldr r3,[sp,#24]
 242 006c 18BF     	 it ne
 243 006e 0422     	 movne r2,#4
 244 0070 A3EB0103 	 sub r3,r3,r1
 245 0074 08BF     	 it eq
 246 0076 0022     	 moveq r2,#0
 247 0078 9A1A     	 subs r2,r3,r2
 248 007a B6F86430 	 ldrh r3,[r6,#100]
 249 007e 92B2     	 uxth r2,r2
 250 0080 002B     	 cmp r3,#0
 251 0082 72D1     	 bne .L37
 252 0084 ADF836A0 	 strh r10,[sp,#54]
 253 0088 5346     	 mov r3,r10
 254 008a D046     	 mov r8,r10
 255              	.L38:
 256 008c D845     	 cmp r8,fp
 257 008e 80F09980 	 bcs .L70
 258 0092 002A     	 cmp r2,#0
 259 0094 00F09A80 	 beq .L71
 260 0098 0029     	 cmp r1,#0
 261 009a 00F09A80 	 beq .L72
 262 009e C8EB0B05 	 rsb r5,r8,fp
 263 00a2 079B     	 ldr r3,[sp,#28]
 264 00a4 9542     	 cmp r5,r2
 265 00a6 A8BF     	 it ge
 266 00a8 1546     	 movge r5,r2
 267 00aa D907     	 lsls r1,r3,#31
 268 00ac ADB2     	 uxth r5,r5
 269 00ae 6CD5     	 bpl .L40
 270 00b0 0193     	 str r3,[sp,#4]
 271 00b2 0123     	 movs r3,#1
 272 00b4 0293     	 str r3,[sp,#8]
 273 00b6 0096     	 str r6,[sp]
 274 00b8 0420     	 movs r0,#4
 275 00ba 2946     	 mov r1,r5
 276 00bc 0DF13603 	 add r3,sp,#54
 277 00c0 FFF7FEFF 	 bl tcp_pbuf_prealloc
 278 00c4 0746     	 mov r7,r0
 279 00c6 0028     	 cmp r0,#0
 280 00c8 00F03D81 	 beq .L41
 281 00cc 059B     	 ldr r3,[sp,#20]
 282 00ce 4068     	 ldr r0,[r0,#4]
 283 00d0 03EB0801 	 add r1,r3,r8
 284 00d4 2A46     	 mov r2,r5
 285 00d6 FFF7FEFF 	 bl memcpy
 286 00da 3846     	 mov r0,r7
 287              	.L108:
 288 00dc FFF7FEFF 	 bl pbuf_clen
 289 00e0 049B     	 ldr r3,[sp,#16]
 290 00e2 1844     	 add r0,r0,r3
 291 00e4 83B2     	 uxth r3,r0
 292 00e6 0493     	 str r3,[sp,#16]
 293 00e8 4FF00009 	 mov r9,#0
 294              	.L42:
 295 00ec 4544     	 add r5,r5,r8
 296 00ee ADB2     	 uxth r5,r5
 297 00f0 2346     	 mov r3,r4
 298              	.L39:
 299 00f2 4FF0000A 	 mov r10,#0
 300 00f6 CDF824A0 	 str r10,[sp,#36]
 301              	.L45:
 302 00fa 5D45     	 cmp r5,fp
 303 00fc 80F0C380 	 bcs .L112
 304 0100 069A     	 ldr r2,[sp,#24]
 305 0102 C5EB0B03 	 rsb r3,r5,fp
 306 0106 9BB2     	 uxth r3,r3
 307 0108 9342     	 cmp r3,r2
 308 010a 28BF     	 it cs
 309 010c 1346     	 movcs r3,r2
 310 010e 9BB2     	 uxth r3,r3
 311 0110 0893     	 str r3,[sp,#32]
 312 0112 079B     	 ldr r3,[sp,#28]
 313 0114 13F0010C 	 ands ip,r3,#1
 314 0118 5FD1     	 bne .L113
 315 011a 6046     	 mov r0,ip
 316 011c 0899     	 ldr r1,[sp,#32]
 317 011e CDF82CC0 	 str ip,[sp,#44]
 318 0122 0122     	 movs r2,#1
 319 0124 FFF7FEFF 	 bl pbuf_alloc
 320 0128 0028     	 cmp r0,#0
 321 012a 6ED1     	 bne .L114
 322              	.L47:
 323 012c 738B     	 ldrh r3,[r6,#26]
 324 012e 43F08003 	 orr r3,r3,#128
 325 0132 7383     	 strh r3,[r6,#26]
 326 0134 17B1     	 cbz r7,.L64
 327 0136 3846     	 mov r0,r7
 328 0138 FFF7FEFF 	 bl pbuf_free
 329              	.L64:
 330 013c BAF1000F 	 cmp r10,#0
 331 0140 02D0     	 beq .L79
 332 0142 5046     	 mov r0,r10
 333 0144 FFF7FEFF 	 bl tcp_segs_free
 334              	.L79:
 335 0148 FF23     	 movs r3,#255
 336 014a 07E1     	 b .L29
 337              	.L32:
 338 014c B46E     	 ldr r4,[r6,#104]
 339 014e B6F86230 	 ldrh r3,[r6,#98]
 340 0152 0493     	 str r3,[sp,#16]
 341 0154 002C     	 cmp r4,#0
 342 0156 00F0FA80 	 beq .L115
 343              	.L35:
 344 015a D4F800A0 	 ldr r10,[r4]
 345 015e BAF1000F 	 cmp r10,#0
 346 0162 3FF47EAF 	 beq .L116
 347 0166 5446     	 mov r4,r10
 348 0168 F7E7     	 b .L35
 349              	.L37:
 350 016a 9B45     	 cmp fp,r3
 351 016c D846     	 mov r8,fp
 352 016e 28BF     	 it cs
 353 0170 9846     	 movcs r8,r3
 354 0172 9045     	 cmp r8,r2
 355 0174 28BF     	 it cs
 356 0176 9046     	 movcs r8,r2
 357 0178 C8EB0303 	 rsb r3,r8,r3
 358 017c C8EB0202 	 rsb r2,r8,r2
 359 0180 ADF83630 	 strh r3,[sp,#54]
 360 0184 92B2     	 uxth r2,r2
 361 0186 2346     	 mov r3,r4
 362 0188 80E7     	 b .L38
 363              	.L40:
 364 018a 6368     	 ldr r3,[r4,#4]
 365              	.L43:
 366 018c 1F68     	 ldr r7,[r3]
 367 018e 0FB1     	 cbz r7,.L117
 368 0190 3B46     	 mov r3,r7
 369 0192 FBE7     	 b .L43
 370              	.L117:
 371 0194 1A7B     	 ldrb r2,[r3,#12]
 372 0196 012A     	 cmp r2,#1
 373 0198 05D1     	 bne .L44
 374 019a 5A89     	 ldrh r2,[r3,#10]
 375 019c 5B68     	 ldr r3,[r3,#4]
 376 019e 1344     	 add r3,r3,r2
 377 01a0 059A     	 ldr r2,[sp,#20]
 378 01a2 9A42     	 cmp r2,r3
 379 01a4 0CD0     	 beq .L74
 380              	.L44:
 381 01a6 0420     	 movs r0,#4
 382 01a8 2946     	 mov r1,r5
 383 01aa 0122     	 movs r2,#1
 384 01ac FFF7FEFF 	 bl pbuf_alloc
 385 01b0 0746     	 mov r7,r0
 386 01b2 0028     	 cmp r0,#0
 387 01b4 00F0C780 	 beq .L41
 388 01b8 059B     	 ldr r3,[sp,#20]
 389 01ba 4344     	 add r3,r3,r8
 390 01bc 4360     	 str r3,[r0,#4]
 391 01be 8DE7     	 b .L108
 392              	.L74:
 393 01c0 A946     	 mov r9,r5
 394 01c2 93E7     	 b .L42
 395              	.L70:
 396 01c4 4546     	 mov r5,r8
 397 01c6 4FF00009 	 mov r9,#0
 398 01ca 04E0     	 b .L109
 399              	.L71:
 400 01cc 4546     	 mov r5,r8
 401 01ce 9146     	 mov r9,r2
 402 01d0 01E0     	 b .L109
 403              	.L72:
 404 01d2 4546     	 mov r5,r8
 405 01d4 8946     	 mov r9,r1
 406              	.L109:
 407 01d6 4F46     	 mov r7,r9
 408 01d8 8BE7     	 b .L39
 409              	.L113:
 410 01da 0193     	 str r3,[sp,#4]
 411 01dc BAFA8AF3 	 clz r3,r10
 412 01e0 5B09     	 lsrs r3,r3,#5
 413 01e2 0293     	 str r3,[sp,#8]
 414 01e4 0096     	 str r6,[sp]
 415 01e6 0020     	 movs r0,#0
 416 01e8 0899     	 ldr r1,[sp,#32]
 417 01ea 0DF13603 	 add r3,sp,#54
 418 01ee FFF7FEFF 	 bl tcp_pbuf_prealloc
 419 01f2 8446     	 mov ip,r0
 420 01f4 0028     	 cmp r0,#0
 421 01f6 99D0     	 beq .L47
 422 01f8 059B     	 ldr r3,[sp,#20]
 423 01fa 089A     	 ldr r2,[sp,#32]
 424 01fc 4068     	 ldr r0,[r0,#4]
 425 01fe CDF828C0 	 str ip,[sp,#40]
 426 0202 5919     	 adds r1,r3,r5
 427 0204 FFF7FEFF 	 bl memcpy
 428 0208 12E0     	 b .L110
 429              	.L114:
 430 020a 059A     	 ldr r2,[sp,#20]
 431 020c DDF82CC0 	 ldr ip,[sp,#44]
 432 0210 0A90     	 str r0,[sp,#40]
 433 0212 2A44     	 add r2,r2,r5
 434 0214 4260     	 str r2,[r0,#4]
 435 0216 6146     	 mov r1,ip
 436 0218 6046     	 mov r0,ip
 437 021a 6246     	 mov r2,ip
 438 021c FFF7FEFF 	 bl pbuf_alloc
 439 0220 0A9B     	 ldr r3,[sp,#40]
 440 0222 08B9     	 cbnz r0,.L49
 441 0224 1846     	 mov r0,r3
 442 0226 13E0     	 b .L111
 443              	.L49:
 444 0228 1946     	 mov r1,r3
 445 022a 0A90     	 str r0,[sp,#40]
 446 022c FFF7FEFF 	 bl pbuf_cat
 447              	.L110:
 448 0230 DDF828C0 	 ldr ip,[sp,#40]
 449 0234 CDF828C0 	 str ip,[sp,#40]
 450 0238 6046     	 mov r0,ip
 451 023a FFF7FEFF 	 bl pbuf_clen
 452 023e 049B     	 ldr r3,[sp,#16]
 453 0240 DDF828C0 	 ldr ip,[sp,#40]
 454 0244 1844     	 add r0,r0,r3
 455 0246 83B2     	 uxth r3,r0
 456 0248 082B     	 cmp r3,#8
 457 024a 0493     	 str r3,[sp,#16]
 458 024c 03D9     	 bls .L50
 459 024e 6046     	 mov r0,ip
 460              	.L111:
 461 0250 FFF7FEFF 	 bl pbuf_free
 462 0254 6AE7     	 b .L47
 463              	.L50:
 464 0256 B36D     	 ldr r3,[r6,#88]
 465 0258 0022     	 movs r2,#0
 466 025a 2B44     	 add r3,r3,r5
 467 025c 0092     	 str r2,[sp]
 468 025e 3046     	 mov r0,r6
 469 0260 6146     	 mov r1,ip
 470 0262 FFF7FEFF 	 bl tcp_create_segment
 471 0266 0346     	 mov r3,r0
 472 0268 0028     	 cmp r0,#0
 473 026a 3FF45FAF 	 beq .L47
 474 026e BAF1000F 	 cmp r10,#0
 475 0272 02D0     	 beq .L75
 476 0274 099A     	 ldr r2,[sp,#36]
 477 0276 1060     	 str r0,[r2]
 478 0278 00E0     	 b .L51
 479              	.L75:
 480 027a 8246     	 mov r10,r0
 481              	.L51:
 482 027c 089A     	 ldr r2,[sp,#32]
 483 027e 0993     	 str r3,[sp,#36]
 484 0280 2A44     	 add r2,r2,r5
 485 0282 95B2     	 uxth r5,r2
 486 0284 39E7     	 b .L45
 487              	.L112:
 488 0286 B8F1000F 	 cmp r8,#0
 489 028a 18D0     	 beq .L53
 490 028c 6568     	 ldr r5,[r4,#4]
 491              	.L54:
 492 028e 95B1     	 cbz r5,.L118
 493 0290 2A89     	 ldrh r2,[r5,#8]
 494 0292 4244     	 add r2,r2,r8
 495 0294 2A81     	 strh r2,[r5,#8]
 496 0296 2A68     	 ldr r2,[r5]
 497 0298 5AB9     	 cbnz r2,.L55
 498 029a 6A89     	 ldrh r2,[r5,#10]
 499 029c 6868     	 ldr r0,[r5,#4]
 500 029e 0599     	 ldr r1,[sp,#20]
 501 02a0 0693     	 str r3,[sp,#24]
 502 02a2 1044     	 add r0,r0,r2
 503 02a4 4246     	 mov r2,r8
 504 02a6 FFF7FEFF 	 bl memcpy
 505 02aa 6A89     	 ldrh r2,[r5,#10]
 506 02ac 069B     	 ldr r3,[sp,#24]
 507 02ae 4244     	 add r2,r2,r8
 508 02b0 6A81     	 strh r2,[r5,#10]
 509              	.L55:
 510 02b2 2D68     	 ldr r5,[r5]
 511 02b4 EBE7     	 b .L54
 512              	.L118:
 513 02b6 2289     	 ldrh r2,[r4,#8]
 514 02b8 9044     	 add r8,r8,r2
 515 02ba A4F80880 	 strh r8,[r4,#8]
 516              	.L53:
 517 02be BDF83620 	 ldrh r2,[sp,#54]
 518 02c2 A6F86420 	 strh r2,[r6,#100]
 519 02c6 57B1     	 cbz r7,.L57
 520 02c8 3946     	 mov r1,r7
 521 02ca 6068     	 ldr r0,[r4,#4]
 522 02cc 0593     	 str r3,[sp,#20]
 523 02ce FFF7FEFF 	 bl pbuf_cat
 524 02d2 3989     	 ldrh r1,[r7,#8]
 525 02d4 2289     	 ldrh r2,[r4,#8]
 526 02d6 059B     	 ldr r3,[sp,#20]
 527 02d8 0A44     	 add r2,r2,r1
 528 02da 2281     	 strh r2,[r4,#8]
 529 02dc 16E0     	 b .L62
 530              	.L57:
 531 02de B9F1000F 	 cmp r9,#0
 532 02e2 0FD0     	 beq .L59
 533 02e4 6268     	 ldr r2,[r4,#4]
 534              	.L60:
 535 02e6 1189     	 ldrh r1,[r2,#8]
 536 02e8 1068     	 ldr r0,[r2]
 537 02ea 4944     	 add r1,r1,r9
 538 02ec 1181     	 strh r1,[r2,#8]
 539 02ee 08B1     	 cbz r0,.L119
 540 02f0 0246     	 mov r2,r0
 541 02f2 F8E7     	 b .L60
 542              	.L119:
 543 02f4 5189     	 ldrh r1,[r2,#10]
 544 02f6 4944     	 add r1,r1,r9
 545 02f8 5181     	 strh r1,[r2,#10]
 546 02fa 2289     	 ldrh r2,[r4,#8]
 547 02fc 9144     	 add r9,r9,r2
 548 02fe A4F80890 	 strh r9,[r4,#8]
 549 0302 03E0     	 b .L62
 550              	.L59:
 551 0304 14B9     	 cbnz r4,.L62
 552 0306 C6F868A0 	 str r10,[r6,#104]
 553 030a 01E0     	 b .L63
 554              	.L62:
 555 030c C4F800A0 	 str r10,[r4]
 556              	.L63:
 557 0310 B26D     	 ldr r2,[r6,#88]
 558 0312 5A44     	 add r2,r2,fp
 559 0314 B265     	 str r2,[r6,#88]
 560 0316 B6F86020 	 ldrh r2,[r6,#96]
 561 031a CBEB020B 	 rsb fp,fp,r2
 562 031e BDF81020 	 ldrh r2,[sp,#16]
 563 0322 A6F860B0 	 strh fp,[r6,#96]
 564 0326 A6F86220 	 strh r2,[r6,#98]
 565 032a BBB1     	 cbz r3,.L29
 566 032c DC68     	 ldr r4,[r3,#12]
 567 032e 64B1     	 cbz r4,.L78
 568 0330 079B     	 ldr r3,[sp,#28]
 569 0332 03F00202 	 and r2,r3,#2
 570 0336 42B9     	 cbnz r2,.L78
 571 0338 0820     	 movs r0,#8
 572 033a A589     	 ldrh r5,[r4,#12]
 573 033c FFF7FEFF 	 bl lwip_htons
 574 0340 2843     	 orrs r0,r0,r5
 575 0342 A081     	 strh r0,[r4,#12]
 576 0344 01E0     	 b .L78
 577              	.L41:
 578 0346 0027     	 movs r7,#0
 579 0348 F0E6     	 b .L47
 580              	.L78:
 581 034a 0023     	 movs r3,#0
 582 034c 06E0     	 b .L29
 583              	.L115:
 584 034e 2346     	 mov r3,r4
 585 0350 A146     	 mov r9,r4
 586 0352 A046     	 mov r8,r4
 587 0354 2546     	 mov r5,r4
 588 0356 2746     	 mov r7,r4
 589 0358 CBE6     	 b .L39
 590              	.L67:
 591 035a F523     	 movs r3,#245
 592              	.L29:
 593 035c 58B2     	 sxtb r0,r3
 594 035e 0FB0     	 add sp,sp,#60
 595              	 
 596 0360 BDE8F08F 	 pop {r4,r5,r6,r7,r8,r9,r10,fp,pc}
 598              	 .section .text.tcp_enqueue_flags,"ax",%progbits
 599              	 .align 1
 600              	 .global tcp_enqueue_flags
 601              	 .thumb
 602              	 .thumb_func
 604              	tcp_enqueue_flags:
 605              	 
 606              	 
 607 0000 B0F86230 	 ldrh r3,[r0,#98]
 608 0004 072B     	 cmp r3,#7
 609 0006 73B5     	 push {r0,r1,r4,r5,r6,lr}
 610 0008 0446     	 mov r4,r0
 611 000a 0D46     	 mov r5,r1
 612 000c 01D9     	 bls .L121
 613 000e E907     	 lsls r1,r5,#31
 614 0010 0FD5     	 bpl .L140
 615              	.L121:
 616 0012 0020     	 movs r0,#0
 617 0014 C5F34006 	 ubfx r6,r5,#1,#1
 618 0018 B100     	 lsls r1,r6,#2
 619 001a 0246     	 mov r2,r0
 620 001c FFF7FEFF 	 bl pbuf_alloc
 621 0020 0146     	 mov r1,r0
 622 0022 30B1     	 cbz r0,.L140
 623 0024 0096     	 str r6,[sp]
 624 0026 2046     	 mov r0,r4
 625 0028 2A46     	 mov r2,r5
 626 002a A36D     	 ldr r3,[r4,#88]
 627 002c FFF7FEFF 	 bl tcp_create_segment
 628 0030 28B9     	 cbnz r0,.L125
 629              	.L140:
 630 0032 638B     	 ldrh r3,[r4,#26]
 631 0034 43F08003 	 orr r3,r3,#128
 632 0038 6383     	 strh r3,[r4,#26]
 633 003a FF20     	 movs r0,#255
 634 003c 20E0     	 b .L122
 635              	.L125:
 636 003e A36E     	 ldr r3,[r4,#104]
 637 0040 0BB9     	 cbnz r3,.L128
 638 0042 A066     	 str r0,[r4,#104]
 639 0044 04E0     	 b .L127
 640              	.L128:
 641 0046 1A68     	 ldr r2,[r3]
 642 0048 0AB1     	 cbz r2,.L141
 643 004a 1346     	 mov r3,r2
 644 004c FBE7     	 b .L128
 645              	.L141:
 646 004e 1860     	 str r0,[r3]
 647              	.L127:
 648 0050 0023     	 movs r3,#0
 649 0052 AA07     	 lsls r2,r5,#30
 650 0054 A4F86430 	 strh r3,[r4,#100]
 651 0058 18BF     	 it ne
 652 005a A36D     	 ldrne r3,[r4,#88]
 653 005c 4068     	 ldr r0,[r0,#4]
 654 005e 1CBF     	 itt ne
 655 0060 0133     	 addne r3,r3,#1
 656 0062 A365     	 strne r3,[r4,#88]
 657 0064 EB07     	 lsls r3,r5,#31
 658 0066 42BF     	 ittt mi
 659 0068 638B     	 ldrhmi r3,[r4,#26]
 660 006a 43F02003 	 orrmi r3,r3,#32
 661 006e 6383     	 strhmi r3,[r4,#26]
 662 0070 FFF7FEFF 	 bl pbuf_clen
 663 0074 B4F86230 	 ldrh r3,[r4,#98]
 664 0078 1844     	 add r0,r0,r3
 665 007a A4F86200 	 strh r0,[r4,#98]
 666 007e 0020     	 movs r0,#0
 667              	.L122:
 668 0080 40B2     	 sxtb r0,r0
 669 0082 02B0     	 add sp,sp,#8
 670              	 
 671 0084 70BD     	 pop {r4,r5,r6,pc}
 673              	 .section .text.tcp_send_fin,"ax",%progbits
 674              	 .align 1
 675              	 .global tcp_send_fin
 676              	 .thumb
 677              	 .thumb_func
 679              	tcp_send_fin:
 680              	 
 681              	 
 682 0000 F8B5     	 push {r3,r4,r5,r6,r7,lr}
 683 0002 846E     	 ldr r4,[r0,#104]
 684 0004 0546     	 mov r5,r0
 685 0006 54B1     	 cbz r4,.L143
 686              	.L144:
 687 0008 2368     	 ldr r3,[r4]
 688 000a 0BB1     	 cbz r3,.L152
 689 000c 1C46     	 mov r4,r3
 690 000e FBE7     	 b .L144
 691              	.L152:
 692 0010 E368     	 ldr r3,[r4,#12]
 693 0012 9889     	 ldrh r0,[r3,#12]
 694 0014 FFF7FEFF 	 bl lwip_htons
 695 0018 10F00707 	 ands r7,r0,#7
 696 001c 05D0     	 beq .L151
 697              	.L143:
 698 001e 2846     	 mov r0,r5
 699 0020 0121     	 movs r1,#1
 700 0022 BDE8F840 	 pop {r3,r4,r5,r6,r7,lr}
 701 0026 FFF7FEBF 	 b tcp_enqueue_flags
 702              	.L151:
 703 002a E668     	 ldr r6,[r4,#12]
 704 002c 0120     	 movs r0,#1
 705 002e B489     	 ldrh r4,[r6,#12]
 706 0030 FFF7FEFF 	 bl lwip_htons
 707 0034 6B8B     	 ldrh r3,[r5,#26]
 708 0036 2043     	 orrs r0,r0,r4
 709 0038 43F02003 	 orr r3,r3,#32
 710 003c B081     	 strh r0,[r6,#12]
 711 003e 6B83     	 strh r3,[r5,#26]
 712 0040 3846     	 mov r0,r7
 713 0042 F8BD     	 pop {r3,r4,r5,r6,r7,pc}
 715              	 .section .text.tcp_send_empty_ack,"ax",%progbits
 716              	 .align 1
 717              	 .global tcp_send_empty_ack
 718              	 .thumb
 719              	 .thumb_func
 721              	tcp_send_empty_ack:
 722              	 
 723              	 
 724 0000 7FB5     	 push {r0,r1,r2,r3,r4,r5,r6,lr}
 725 0002 0446     	 mov r4,r0
 726 0004 C06C     	 ldr r0,[r0,#76]
 727 0006 FFF7FEFF 	 bl lwip_htonl
 728 000a 0021     	 movs r1,#0
 729 000c 0246     	 mov r2,r0
 730 000e 2046     	 mov r0,r4
 731 0010 FFF7FEFF 	 bl tcp_output_alloc_header.constprop.0
 732 0014 0646     	 mov r6,r0
 733 0016 28B9     	 cbnz r0,.L154
 734 0018 638B     	 ldrh r3,[r4,#26]
 735 001a 43F00303 	 orr r3,r3,#3
 736 001e 6383     	 strh r3,[r4,#26]
 737 0020 FE20     	 movs r0,#254
 738 0022 1EE0     	 b .L155
 739              	.L154:
 740 0024 251D     	 adds r5,r4,#4
 741 0026 2846     	 mov r0,r5
 742 0028 FFF7FEFF 	 bl ip4_route
 743 002c 60B1     	 cbz r0,.L158
 744 002e 627A     	 ldrb r2,[r4,#9]
 745 0030 0092     	 str r2,[sp]
 746 0032 0622     	 movs r2,#6
 747 0034 0192     	 str r2,[sp,#4]
 748 0036 0290     	 str r0,[sp,#8]
 749 0038 2A46     	 mov r2,r5
 750 003a A37A     	 ldrb r3,[r4,#10]
 751 003c 3046     	 mov r0,r6
 752 003e 2146     	 mov r1,r4
 753 0040 FFF7FEFF 	 bl ip4_output_if
 754 0044 0546     	 mov r5,r0
 755 0046 00E0     	 b .L156
 756              	.L158:
 757 0048 FC25     	 movs r5,#252
 758              	.L156:
 759 004a 3046     	 mov r0,r6
 760 004c FFF7FEFF 	 bl pbuf_free
 761 0050 638B     	 ldrh r3,[r4,#26]
 762 0052 15B1     	 cbz r5,.L157
 763 0054 43F00303 	 orr r3,r3,#3
 764 0058 01E0     	 b .L159
 765              	.L157:
 766 005a 23F00303 	 bic r3,r3,#3
 767              	.L159:
 768 005e 6383     	 strh r3,[r4,#26]
 769 0060 2846     	 mov r0,r5
 770              	.L155:
 771 0062 40B2     	 sxtb r0,r0
 772 0064 04B0     	 add sp,sp,#16
 773              	 
 774 0066 70BD     	 pop {r4,r5,r6,pc}
 776              	 .section .text.tcp_output,"ax",%progbits
 777              	 .align 1
 778              	 .global tcp_output
 779              	 .thumb
 780              	 .thumb_func
 782              	tcp_output:
 783              	 
 784              	 
 785 0000 2DE9F04F 	 push {r4,r5,r6,r7,r8,r9,r10,fp,lr}
 786 0004 AD4B     	 ldr r3,.L238
 787 0006 1B68     	 ldr r3,[r3]
 788 0008 8342     	 cmp r3,r0
 789 000a 85B0     	 sub sp,sp,#20
 790 000c 0446     	 mov r4,r0
 791 000e 00F04D81 	 beq .L194
 792 0012 B0F84830 	 ldrh r3,[r0,#72]
 793 0016 B0F85C70 	 ldrh r7,[r0,#92]
 794 001a 856E     	 ldr r5,[r0,#104]
 795 001c 9F42     	 cmp r7,r3
 796 001e 28BF     	 it cs
 797 0020 1F46     	 movcs r7,r3
 798 0022 438B     	 ldrh r3,[r0,#26]
 799 0024 9A07     	 lsls r2,r3,#30
 800 0026 10D5     	 bpl .L162
 801 0028 2DB9     	 cbnz r5,.L163
 802              	.L164:
 803 002a 2046     	 mov r0,r4
 804 002c 05B0     	 add sp,sp,#20
 805              	 
 806 002e BDE8F04F 	 pop {r4,r5,r6,r7,r8,r9,r10,fp,lr}
 807 0032 FFF7FEBF 	 b tcp_send_empty_ack
 808              	.L163:
 809 0036 EB68     	 ldr r3,[r5,#12]
 810 0038 5868     	 ldr r0,[r3,#4]
 811 003a FFF7FEFF 	 bl lwip_htonl
 812 003e 2B89     	 ldrh r3,[r5,#8]
 813 0040 626C     	 ldr r2,[r4,#68]
 814 0042 9B1A     	 subs r3,r3,r2
 815 0044 1844     	 add r0,r0,r3
 816 0046 B842     	 cmp r0,r7
 817 0048 EFD8     	 bhi .L164
 818              	.L162:
 819 004a E66E     	 ldr r6,[r4,#108]
 820 004c 1EB1     	 cbz r6,.L165
 821              	.L166:
 822 004e 3368     	 ldr r3,[r6]
 823 0050 0BB1     	 cbz r3,.L165
 824 0052 1E46     	 mov r6,r3
 825 0054 FBE7     	 b .L166
 826              	.L165:
 827 0056 04F10408 	 add r8,r4,#4
 828 005a 4046     	 mov r0,r8
 829 005c FFF7FEFF 	 bl ip4_route
 830 0060 8146     	 mov r9,r0
 831 0062 0028     	 cmp r0,#0
 832 0064 00F02481 	 beq .L196
 833 0068 2368     	 ldr r3,[r4]
 834 006a 0BB9     	 cbnz r3,.L167
 835 006c 4368     	 ldr r3,[r0,#4]
 836 006e 2360     	 str r3,[r4]
 837              	.L167:
 838 0070 002D     	 cmp r5,#0
 839 0072 72D0     	 beq .L170
 840 0074 EB68     	 ldr r3,[r5,#12]
 841 0076 5868     	 ldr r0,[r3,#4]
 842 0078 FFF7FEFF 	 bl lwip_htonl
 843 007c 2B89     	 ldrh r3,[r5,#8]
 844 007e 626C     	 ldr r2,[r4,#68]
 845 0080 9B1A     	 subs r3,r3,r2
 846 0082 1844     	 add r0,r0,r3
 847 0084 B842     	 cmp r0,r7
 848 0086 68D9     	 bls .L170
 849 0088 002F     	 cmp r7,#0
 850 008a 66D0     	 beq .L170
 851 008c B4F85C30 	 ldrh r3,[r4,#92]
 852 0090 9F42     	 cmp r7,r3
 853 0092 62D1     	 bne .L170
 854 0094 E36E     	 ldr r3,[r4,#108]
 855 0096 002B     	 cmp r3,#0
 856 0098 5FD1     	 bne .L170
 857 009a 94F89530 	 ldrb r3,[r4,#149]
 858 009e 002B     	 cmp r3,#0
 859 00a0 40F0FC80 	 bne .L172
 860 00a4 84F89430 	 strb r3,[r4,#148]
 861 00a8 0123     	 movs r3,#1
 862 00aa 84F89530 	 strb r3,[r4,#149]
 863 00ae F5E0     	 b .L172
 864              	.L237:
 865 00b0 EB68     	 ldr r3,[r5,#12]
 866 00b2 5868     	 ldr r0,[r3,#4]
 867 00b4 FFF7FEFF 	 bl lwip_htonl
 868 00b8 2B89     	 ldrh r3,[r5,#8]
 869 00ba 626C     	 ldr r2,[r4,#68]
 870 00bc 9B1A     	 subs r3,r3,r2
 871 00be 1844     	 add r0,r0,r3
 872 00c0 B842     	 cmp r0,r7
 873 00c2 00F2EB80 	 bhi .L172
 874 00c6 E36E     	 ldr r3,[r4,#108]
 875 00c8 002B     	 cmp r3,#0
 876 00ca 49D1     	 bne .L235
 877              	.L173:
 878 00cc 237D     	 ldrb r3,[r4,#20]
 879 00ce 022B     	 cmp r3,#2
 880 00d0 0AD0     	 beq .L176
 881 00d2 D5F80CB0 	 ldr fp,[r5,#12]
 882 00d6 1020     	 movs r0,#16
 883 00d8 BBF80CA0 	 ldrh r10,[fp,#12]
 884 00dc FFF7FEFF 	 bl lwip_htons
 885 00e0 40EA0A00 	 orr r0,r0,r10
 886 00e4 ABF80C00 	 strh r0,[fp,#12]
 887              	.L176:
 888 00e8 6B68     	 ldr r3,[r5,#4]
 889 00ea DB89     	 ldrh r3,[r3,#14]
 890 00ec 012B     	 cmp r3,#1
 891 00ee 4ED0     	 beq .L236
 892              	.L177:
 893 00f0 2B68     	 ldr r3,[r5]
 894 00f2 A366     	 str r3,[r4,#104]
 895 00f4 237D     	 ldrb r3,[r4,#20]
 896 00f6 022B     	 cmp r3,#2
 897 00f8 1EBF     	 ittt ne
 898 00fa 638B     	 ldrhne r3,[r4,#26]
 899 00fc 23F00303 	 bicne r3,r3,#3
 900 0100 6383     	 strhne r3,[r4,#26]
 901 0102 EB68     	 ldr r3,[r5,#12]
 902 0104 5868     	 ldr r0,[r3,#4]
 903 0106 FFF7FEFF 	 bl lwip_htonl
 904 010a EB68     	 ldr r3,[r5,#12]
 905 010c B5F808A0 	 ldrh r10,[r5,#8]
 906 0110 8346     	 mov fp,r0
 907 0112 9889     	 ldrh r0,[r3,#12]
 908 0114 FFF7FEFF 	 bl lwip_htons
 909 0118 10F00300 	 ands r0,r0,#3
 910 011c E36C     	 ldr r3,[r4,#76]
 911 011e DA44     	 add r10,r10,fp
 912 0120 18BF     	 it ne
 913 0122 0120     	 movne r0,#1
 914 0124 5044     	 add r0,r0,r10
 915 0126 1B1A     	 subs r3,r3,r0
 916 0128 002B     	 cmp r3,#0
 917 012a EB68     	 ldr r3,[r5,#12]
 918 012c B8BF     	 it lt
 919 012e E064     	 strlt r0,[r4,#76]
 920 0130 9889     	 ldrh r0,[r3,#12]
 921 0132 B5F808A0 	 ldrh r10,[r5,#8]
 922 0136 FFF7FEFF 	 bl lwip_htons
 923 013a 10F00300 	 ands r0,r0,#3
 924 013e 18BF     	 it ne
 925 0140 0120     	 movne r0,#1
 926 0142 10EB0A0F 	 cmn r0,r10
 927 0146 00F0A080 	 beq .L183
 928 014a 0023     	 movs r3,#0
 929 014c 2B60     	 str r3,[r5]
 930 014e E36E     	 ldr r3,[r4,#108]
 931 0150 002B     	 cmp r3,#0
 932 0152 70D1     	 bne .L184
 933 0154 E566     	 str r5,[r4,#108]
 934              	.L185:
 935 0156 2E46     	 mov r6,r5
 936 0158 A56E     	 ldr r5,[r4,#104]
 937              	.L170:
 938 015a 002D     	 cmp r5,#0
 939 015c A8D1     	 bne .L237
 940 015e 9DE0     	 b .L172
 941              	.L235:
 942 0160 628B     	 ldrh r2,[r4,#26]
 943 0162 12F0440F 	 tst r2,#68
 944 0166 B1D1     	 bne .L173
 945 0168 A36E     	 ldr r3,[r4,#104]
 946 016a 33B1     	 cbz r3,.L174
 947 016c 1968     	 ldr r1,[r3]
 948 016e 0029     	 cmp r1,#0
 949 0170 ACD1     	 bne .L173
 950 0172 1989     	 ldrh r1,[r3,#8]
 951 0174 638E     	 ldrh r3,[r4,#50]
 952 0176 9942     	 cmp r1,r3
 953 0178 A8D2     	 bcs .L173
 954              	.L174:
 955 017a B4F86030 	 ldrh r3,[r4,#96]
 956 017e 002B     	 cmp r3,#0
 957 0180 A4D0     	 beq .L173
 958 0182 B4F86230 	 ldrh r3,[r4,#98]
 959 0186 072B     	 cmp r3,#7
 960 0188 40F28480 	 bls .L175
 961 018c 9EE7     	 b .L173
 962              	.L236:
 963 018e 606A     	 ldr r0,[r4,#36]
 964 0190 D5F80CA0 	 ldr r10,[r5,#12]
 965 0194 FFF7FEFF 	 bl lwip_htonl
 966 0198 CAF80800 	 str r0,[r10,#8]
 967 019c 608D     	 ldrh r0,[r4,#42]
 968 019e D5F80CA0 	 ldr r10,[r5,#12]
 969 01a2 FFF7FEFF 	 bl lwip_htons
 970 01a6 628D     	 ldrh r2,[r4,#42]
 971 01a8 636A     	 ldr r3,[r4,#36]
 972 01aa AAF80E00 	 strh r0,[r10,#14]
 973 01ae 1344     	 add r3,r3,r2
 974 01b0 E362     	 str r3,[r4,#44]
 975 01b2 AB7A     	 ldrb r3,[r5,#10]
 976 01b4 D5F80CA0 	 ldr r10,[r5,#12]
 977 01b8 DB07     	 lsls r3,r3,#31
 978 01ba 0AD5     	 bpl .L178
 979 01bc 4146     	 mov r1,r8
 980 01be 4FF40670 	 mov r0,#536
 981 01c2 FFF7FEFF 	 bl tcp_eff_send_mss_impl
 982 01c6 40F00170 	 orr r0,r0,#33816576
 983 01ca FFF7FEFF 	 bl lwip_htonl
 984 01ce CAF81400 	 str r0,[r10,#20]
 985              	.L178:
 986 01d2 B4F93030 	 ldrsh r3,[r4,#48]
 987 01d6 002B     	 cmp r3,#0
 988 01d8 BCBF     	 itt lt
 989 01da 0023     	 movlt r3,#0
 990 01dc 2386     	 strhlt r3,[r4,#48]
 991 01de 636B     	 ldr r3,[r4,#52]
 992 01e0 3BB9     	 cbnz r3,.L180
 993 01e2 374B     	 ldr r3,.L238+4
 994 01e4 1B68     	 ldr r3,[r3]
 995 01e6 6363     	 str r3,[r4,#52]
 996 01e8 EB68     	 ldr r3,[r5,#12]
 997 01ea 5868     	 ldr r0,[r3,#4]
 998 01ec FFF7FEFF 	 bl lwip_htonl
 999 01f0 A063     	 str r0,[r4,#56]
 1000              	.L180:
 1001 01f2 6868     	 ldr r0,[r5,#4]
 1002 01f4 EA68     	 ldr r2,[r5,#12]
 1003 01f6 4368     	 ldr r3,[r0,#4]
 1004 01f8 4189     	 ldrh r1,[r0,#10]
 1005 01fa 4260     	 str r2,[r0,#4]
 1006 01fc D31A     	 subs r3,r2,r3
 1007 01fe 9BB2     	 uxth r3,r3
 1008 0200 C91A     	 subs r1,r1,r3
 1009 0202 4181     	 strh r1,[r0,#10]
 1010 0204 0189     	 ldrh r1,[r0,#8]
 1011 0206 CB1A     	 subs r3,r1,r3
 1012 0208 0381     	 strh r3,[r0,#8]
 1013 020a 0023     	 movs r3,#0
 1014 020c 1374     	 strb r3,[r2,#16]
 1015 020e 5374     	 strb r3,[r2,#17]
 1016 0210 627A     	 ldrb r2,[r4,#9]
 1017 0212 0092     	 str r2,[sp]
 1018 0214 0622     	 movs r2,#6
 1019 0216 0192     	 str r2,[sp,#4]
 1020 0218 A37A     	 ldrb r3,[r4,#10]
 1021 021a CDF80890 	 str r9,[sp,#8]
 1022 021e 2146     	 mov r1,r4
 1023 0220 4246     	 mov r2,r8
 1024 0222 FFF7FEFF 	 bl ip4_output_if
 1025 0226 0028     	 cmp r0,#0
 1026 0228 3FF462AF 	 beq .L177
 1027 022c 638B     	 ldrh r3,[r4,#26]
 1028 022e 43F08003 	 orr r3,r3,#128
 1029 0232 6383     	 strh r3,[r4,#26]
 1030 0234 3DE0     	 b .L161
 1031              	.L184:
 1032 0236 EB68     	 ldr r3,[r5,#12]
 1033 0238 5868     	 ldr r0,[r3,#4]
 1034 023a FFF7FEFF 	 bl lwip_htonl
 1035 023e F368     	 ldr r3,[r6,#12]
 1036 0240 8246     	 mov r10,r0
 1037 0242 5868     	 ldr r0,[r3,#4]
 1038 0244 FFF7FEFF 	 bl lwip_htonl
 1039 0248 C0EB0A00 	 rsb r0,r0,r10
 1040 024c 0028     	 cmp r0,#0
 1041 024e 1ADA     	 bge .L186
 1042 0250 04F16C0A 	 add r10,r4,#108
 1043              	.L187:
 1044 0254 DAF80030 	 ldr r3,[r10]
 1045 0258 2BB9     	 cbnz r3,.L188
 1046              	.L190:
 1047 025a DAF80030 	 ldr r3,[r10]
 1048 025e 2B60     	 str r3,[r5]
 1049 0260 CAF80050 	 str r5,[r10]
 1050 0264 14E0     	 b .L234
 1051              	.L188:
 1052 0266 DB68     	 ldr r3,[r3,#12]
 1053 0268 5868     	 ldr r0,[r3,#4]
 1054 026a FFF7FEFF 	 bl lwip_htonl
 1055 026e EB68     	 ldr r3,[r5,#12]
 1056 0270 8346     	 mov fp,r0
 1057 0272 5868     	 ldr r0,[r3,#4]
 1058 0274 FFF7FEFF 	 bl lwip_htonl
 1059 0278 C0EB0B00 	 rsb r0,r0,fp
 1060 027c 0028     	 cmp r0,#0
 1061 027e ECDA     	 bge .L190
 1062 0280 DAF800A0 	 ldr r10,[r10]
 1063 0284 E6E7     	 b .L187
 1064              	.L186:
 1065 0286 3560     	 str r5,[r6]
 1066 0288 65E7     	 b .L185
 1067              	.L183:
 1068 028a 2846     	 mov r0,r5
 1069 028c FFF7FEFF 	 bl tcp_seg_free
 1070              	.L234:
 1071 0290 3546     	 mov r5,r6
 1072 0292 60E7     	 b .L185
 1073              	.L175:
 1074 0294 12F0A00F 	 tst r2,#160
 1075 0298 7FF418AF 	 bne .L173
 1076              	.L172:
 1077 029c A36E     	 ldr r3,[r4,#104]
 1078 029e 0BB9     	 cbnz r3,.L193
 1079 02a0 A4F86430 	 strh r3,[r4,#100]
 1080              	.L193:
 1081 02a4 638B     	 ldrh r3,[r4,#26]
 1082 02a6 23F08003 	 bic r3,r3,#128
 1083 02aa 6383     	 strh r3,[r4,#26]
 1084              	.L194:
 1085 02ac 0020     	 movs r0,#0
 1086 02ae 00E0     	 b .L161
 1087              	.L196:
 1088 02b0 FC20     	 movs r0,#252
 1089              	.L161:
 1090 02b2 40B2     	 sxtb r0,r0
 1091 02b4 05B0     	 add sp,sp,#20
 1092              	 
 1093 02b6 BDE8F08F 	 pop {r4,r5,r6,r7,r8,r9,r10,fp,pc}
 1094              	.L239:
 1095 02ba 00BF     	 .align 2
 1096              	.L238:
 1097 02bc 00000000 	 .word tcp_input_pcb
 1098 02c0 00000000 	 .word tcp_ticks
 1100              	 .section .text.tcp_rst,"ax",%progbits
 1101              	 .align 1
 1102              	 .global tcp_rst
 1103              	 .thumb
 1104              	 .thumb_func
 1106              	tcp_rst:
 1107              	 
 1108              	 
 1109 0000 2DE9F04F 	 push {r4,r5,r6,r7,r8,r9,r10,fp,lr}
 1110 0004 85B0     	 sub sp,sp,#20
 1111 0006 8146     	 mov r9,r0
 1112 0008 0D46     	 mov r5,r1
 1113 000a 9046     	 mov r8,r2
 1114 000c 0120     	 movs r0,#1
 1115 000e 1421     	 movs r1,#20
 1116 0010 0022     	 movs r2,#0
 1117 0012 1F46     	 mov r7,r3
 1118 0014 BDF838B0 	 ldrh fp,[sp,#56]
 1119 0018 BDF83CA0 	 ldrh r10,[sp,#60]
 1120 001c FFF7FEFF 	 bl pbuf_alloc
 1121 0020 0646     	 mov r6,r0
 1122 0022 90B3     	 cbz r0,.L240
 1123 0024 4468     	 ldr r4,[r0,#4]
 1124 0026 5846     	 mov r0,fp
 1125 0028 FFF7FEFF 	 bl lwip_htons
 1126 002c 2080     	 strh r0,[r4]
 1127 002e 5046     	 mov r0,r10
 1128 0030 FFF7FEFF 	 bl lwip_htons
 1129 0034 6080     	 strh r0,[r4,#2]
 1130 0036 4846     	 mov r0,r9
 1131 0038 FFF7FEFF 	 bl lwip_htonl
 1132 003c 6060     	 str r0,[r4,#4]
 1133 003e 2846     	 mov r0,r5
 1134 0040 FFF7FEFF 	 bl lwip_htonl
 1135 0044 A060     	 str r0,[r4,#8]
 1136 0046 45F21400 	 movw r0,#20500
 1137 004a FFF7FEFF 	 bl lwip_htons
 1138 004e 0823     	 movs r3,#8
 1139 0050 0025     	 movs r5,#0
 1140 0052 A373     	 strb r3,[r4,#14]
 1141 0054 6023     	 movs r3,#96
 1142 0056 A081     	 strh r0,[r4,#12]
 1143 0058 E373     	 strb r3,[r4,#15]
 1144 005a 2574     	 strb r5,[r4,#16]
 1145 005c 6574     	 strb r5,[r4,#17]
 1146 005e A574     	 strb r5,[r4,#18]
 1147 0060 E574     	 strb r5,[r4,#19]
 1148 0062 3846     	 mov r0,r7
 1149 0064 FFF7FEFF 	 bl ip4_route
 1150 0068 48B1     	 cbz r0,.L242
 1151 006a 0623     	 movs r3,#6
 1152 006c 0193     	 str r3,[sp,#4]
 1153 006e 0290     	 str r0,[sp,#8]
 1154 0070 0095     	 str r5,[sp]
 1155 0072 3046     	 mov r0,r6
 1156 0074 4146     	 mov r1,r8
 1157 0076 3A46     	 mov r2,r7
 1158 0078 FF23     	 movs r3,#255
 1159 007a FFF7FEFF 	 bl ip4_output_if
 1160              	.L242:
 1161 007e 3046     	 mov r0,r6
 1162 0080 05B0     	 add sp,sp,#20
 1163              	 
 1164 0082 BDE8F04F 	 pop {r4,r5,r6,r7,r8,r9,r10,fp,lr}
 1165 0086 FFF7FEBF 	 b pbuf_free
 1166              	.L240:
 1167 008a 05B0     	 add sp,sp,#20
 1168              	 
 1169 008c BDE8F08F 	 pop {r4,r5,r6,r7,r8,r9,r10,fp,pc}
 1171              	 .section .text.tcp_rexmit_rto,"ax",%progbits
 1172              	 .align 1
 1173              	 .global tcp_rexmit_rto
 1174              	 .thumb
 1175              	 .thumb_func
 1177              	tcp_rexmit_rto:
 1178              	 
 1179              	 
 1180 0000 C26E     	 ldr r2,[r0,#108]
 1181 0002 10B5     	 push {r4,lr}
 1182 0004 AAB1     	 cbz r2,.L246
 1183 0006 1146     	 mov r1,r2
 1184              	.L248:
 1185 0008 0B68     	 ldr r3,[r1]
 1186 000a 0BB1     	 cbz r3,.L254
 1187 000c 1946     	 mov r1,r3
 1188 000e FBE7     	 b .L248
 1189              	.L254:
 1190 0010 846E     	 ldr r4,[r0,#104]
 1191 0012 0C60     	 str r4,[r1]
 1192 0014 C366     	 str r3,[r0,#108]
 1193 0016 90F84230 	 ldrb r3,[r0,#66]
 1194 001a 8266     	 str r2,[r0,#104]
 1195 001c FF2B     	 cmp r3,#255
 1196 001e 1CBF     	 itt ne
 1197 0020 0133     	 addne r3,r3,#1
 1198 0022 80F84230 	 strbne r3,[r0,#66]
 1199 0026 0023     	 movs r3,#0
 1200 0028 4363     	 str r3,[r0,#52]
 1201 002a BDE81040 	 pop {r4,lr}
 1202 002e FFF7FEBF 	 b tcp_output
 1203              	.L246:
 1204 0032 10BD     	 pop {r4,pc}
 1206              	 .section .text.tcp_rexmit,"ax",%progbits
 1207              	 .align 1
 1208              	 .global tcp_rexmit
 1209              	 .thumb
 1210              	 .thumb_func
 1212              	tcp_rexmit:
 1213              	 
 1214              	 
 1215 0000 F8B5     	 push {r3,r4,r5,r6,r7,lr}
 1216 0002 C56E     	 ldr r5,[r0,#108]
 1217 0004 0446     	 mov r4,r0
 1218 0006 25B3     	 cbz r5,.L255
 1219 0008 2B68     	 ldr r3,[r5]
 1220 000a C366     	 str r3,[r0,#108]
 1221 000c 00F16806 	 add r6,r0,#104
 1222              	.L257:
 1223 0010 3368     	 ldr r3,[r6]
 1224 0012 3BB9     	 cbnz r3,.L258
 1225              	.L262:
 1226 0014 3368     	 ldr r3,[r6]
 1227 0016 2B60     	 str r3,[r5]
 1228 0018 3560     	 str r5,[r6]
 1229 001a 2B68     	 ldr r3,[r5]
 1230 001c 83B9     	 cbnz r3,.L260
 1231 001e A4F86430 	 strh r3,[r4,#100]
 1232 0022 0DE0     	 b .L260
 1233              	.L258:
 1234 0024 DB68     	 ldr r3,[r3,#12]
 1235 0026 5868     	 ldr r0,[r3,#4]
 1236 0028 FFF7FEFF 	 bl lwip_htonl
 1237 002c EB68     	 ldr r3,[r5,#12]
 1238 002e 0746     	 mov r7,r0
 1239 0030 5868     	 ldr r0,[r3,#4]
 1240 0032 FFF7FEFF 	 bl lwip_htonl
 1241 0036 381A     	 subs r0,r7,r0
 1242 0038 0028     	 cmp r0,#0
 1243 003a EBDA     	 bge .L262
 1244 003c 3668     	 ldr r6,[r6]
 1245 003e E7E7     	 b .L257
 1246              	.L260:
 1247 0040 94F84230 	 ldrb r3,[r4,#66]
 1248 0044 FF2B     	 cmp r3,#255
 1249 0046 1CBF     	 itt ne
 1250 0048 0133     	 addne r3,r3,#1
 1251 004a 84F84230 	 strbne r3,[r4,#66]
 1252 004e 0023     	 movs r3,#0
 1253 0050 6363     	 str r3,[r4,#52]
 1254              	.L255:
 1255 0052 F8BD     	 pop {r3,r4,r5,r6,r7,pc}
 1257              	 .section .text.tcp_rexmit_fast,"ax",%progbits
 1258              	 .align 1
 1259              	 .global tcp_rexmit_fast
 1260              	 .thumb
 1261              	 .thumb_func
 1263              	tcp_rexmit_fast:
 1264              	 
 1265              	 
 1266 0000 C36E     	 ldr r3,[r0,#108]
 1267 0002 10B5     	 push {r4,lr}
 1268 0004 0446     	 mov r4,r0
 1269 0006 03B3     	 cbz r3,.L270
 1270 0008 438B     	 ldrh r3,[r0,#26]
 1271 000a 5B07     	 lsls r3,r3,#29
 1272 000c 1DD4     	 bmi .L270
 1273 000e FFF7FEFF 	 bl tcp_rexmit
 1274 0012 B4F84820 	 ldrh r2,[r4,#72]
 1275 0016 B4F85C30 	 ldrh r3,[r4,#92]
 1276 001a 618E     	 ldrh r1,[r4,#50]
 1277 001c 9342     	 cmp r3,r2
 1278 001e 28BF     	 it cs
 1279 0020 1346     	 movcs r3,r2
 1280 0022 5B10     	 asrs r3,r3,#1
 1281 0024 4A00     	 lsls r2,r1,#1
 1282 0026 9342     	 cmp r3,r2
 1283 0028 A4F84A30 	 strh r3,[r4,#74]
 1284 002c 38BF     	 it cc
 1285 002e A4F84A20 	 strhcc r2,[r4,#74]
 1286 0032 B4F84A30 	 ldrh r3,[r4,#74]
 1287 0036 0A44     	 add r2,r2,r1
 1288 0038 1A44     	 add r2,r2,r3
 1289 003a 638B     	 ldrh r3,[r4,#26]
 1290 003c A4F84820 	 strh r2,[r4,#72]
 1291 0040 43F00403 	 orr r3,r3,#4
 1292 0044 6383     	 strh r3,[r4,#26]
 1293 0046 0023     	 movs r3,#0
 1294 0048 2386     	 strh r3,[r4,#48]
 1295              	.L270:
 1296 004a 10BD     	 pop {r4,pc}
 1298              	 .section .text.tcp_keepalive,"ax",%progbits
 1299              	 .align 1
 1300              	 .global tcp_keepalive
 1301              	 .thumb
 1302              	 .thumb_func
 1304              	tcp_keepalive:
 1305              	 
 1306              	 
 1307 0000 7FB5     	 push {r0,r1,r2,r3,r4,r5,r6,lr}
 1308 0002 0446     	 mov r4,r0
 1309 0004 C06C     	 ldr r0,[r0,#76]
 1310 0006 0138     	 subs r0,r0,#1
 1311 0008 FFF7FEFF 	 bl lwip_htonl
 1312 000c 0021     	 movs r1,#0
 1313 000e 0246     	 mov r2,r0
 1314 0010 2046     	 mov r0,r4
 1315 0012 FFF7FEFF 	 bl tcp_output_alloc_header.constprop.0
 1316 0016 0546     	 mov r5,r0
 1317 0018 B8B1     	 cbz r0,.L279
 1318 001a 261D     	 adds r6,r4,#4
 1319 001c 3046     	 mov r0,r6
 1320 001e FFF7FEFF 	 bl ip4_route
 1321 0022 60B1     	 cbz r0,.L280
 1322 0024 0021     	 movs r1,#0
 1323 0026 0622     	 movs r2,#6
 1324 0028 A37A     	 ldrb r3,[r4,#10]
 1325 002a 0290     	 str r0,[sp,#8]
 1326 002c 8DE80600 	 stmia sp,{r1,r2}
 1327 0030 2846     	 mov r0,r5
 1328 0032 2146     	 mov r1,r4
 1329 0034 3246     	 mov r2,r6
 1330 0036 FFF7FEFF 	 bl ip4_output_if
 1331 003a 0446     	 mov r4,r0
 1332 003c 00E0     	 b .L278
 1333              	.L280:
 1334 003e FC24     	 movs r4,#252
 1335              	.L278:
 1336 0040 2846     	 mov r0,r5
 1337 0042 FFF7FEFF 	 bl pbuf_free
 1338 0046 2046     	 mov r0,r4
 1339 0048 00E0     	 b .L277
 1340              	.L279:
 1341 004a FF20     	 movs r0,#255
 1342              	.L277:
 1343 004c 40B2     	 sxtb r0,r0
 1344 004e 04B0     	 add sp,sp,#16
 1345              	 
 1346 0050 70BD     	 pop {r4,r5,r6,pc}
 1348              	 .section .text.tcp_zero_window_probe,"ax",%progbits
 1349              	 .align 1
 1350              	 .global tcp_zero_window_probe
 1351              	 .thumb
 1352              	 .thumb_func
 1354              	tcp_zero_window_probe:
 1355              	 
 1356              	 
 1357 0000 2DE9FF41 	 push {r0,r1,r2,r3,r4,r5,r6,r7,r8,lr}
 1358 0004 C46E     	 ldr r4,[r0,#108]
 1359 0006 0646     	 mov r6,r0
 1360 0008 14B9     	 cbnz r4,.L282
 1361 000a 846E     	 ldr r4,[r0,#104]
 1362 000c 002C     	 cmp r4,#0
 1363 000e 50D0     	 beq .L289
 1364              	.L282:
 1365 0010 E368     	 ldr r3,[r4,#12]
 1366 0012 9889     	 ldrh r0,[r3,#12]
 1367 0014 FFF7FEFF 	 bl lwip_htons
 1368 0018 10F00100 	 ands r0,r0,#1
 1369 001c 18BF     	 it ne
 1370 001e 2589     	 ldrhne r5,[r4,#8]
 1371 0020 E368     	 ldr r3,[r4,#12]
 1372 0022 16BF     	 itet ne
 1373 0024 B5FA85F5 	 clzne r5,r5
 1374 0028 0546     	 moveq r5,r0
 1375 002a 6D09     	 lsrne r5,r5,#5
 1376 002c 3046     	 mov r0,r6
 1377 002e 85F00101 	 eor r1,r5,#1
 1378 0032 5A68     	 ldr r2,[r3,#4]
 1379 0034 FFF7FEFF 	 bl tcp_output_alloc_header.constprop.0
 1380 0038 0746     	 mov r7,r0
 1381 003a 0028     	 cmp r0,#0
 1382 003c 3BD0     	 beq .L291
 1383 003e D0F80480 	 ldr r8,[r0,#4]
 1384 0042 5DB1     	 cbz r5,.L285
 1385 0044 B8F80C50 	 ldrh r5,[r8,#12]
 1386 0048 1120     	 movs r0,#17
 1387 004a FFF7FEFF 	 bl lwip_htons
 1388 004e 25F47C55 	 bic r5,r5,#16128
 1389 0052 ADB2     	 uxth r5,r5
 1390 0054 2843     	 orrs r0,r0,r5
 1391 0056 A8F80C00 	 strh r0,[r8,#12]
 1392 005a 09E0     	 b .L286
 1393              	.L285:
 1394 005c 6068     	 ldr r0,[r4,#4]
 1395 005e 2289     	 ldrh r2,[r4,#8]
 1396 0060 0389     	 ldrh r3,[r0,#8]
 1397 0062 9B1A     	 subs r3,r3,r2
 1398 0064 08F11401 	 add r1,r8,#20
 1399 0068 0122     	 movs r2,#1
 1400 006a 9BB2     	 uxth r3,r3
 1401 006c FFF7FEFF 	 bl pbuf_copy_partial
 1402              	.L286:
 1403 0070 E368     	 ldr r3,[r4,#12]
 1404 0072 5868     	 ldr r0,[r3,#4]
 1405 0074 FFF7FEFF 	 bl lwip_htonl
 1406 0078 F36C     	 ldr r3,[r6,#76]
 1407 007a 0130     	 adds r0,r0,#1
 1408 007c 1B1A     	 subs r3,r3,r0
 1409 007e 002B     	 cmp r3,#0
 1410 0080 06F10404 	 add r4,r6,#4
 1411 0084 B8BF     	 it lt
 1412 0086 F064     	 strlt r0,[r6,#76]
 1413 0088 2046     	 mov r0,r4
 1414 008a FFF7FEFF 	 bl ip4_route
 1415 008e 60B1     	 cbz r0,.L292
 1416 0090 0021     	 movs r1,#0
 1417 0092 0622     	 movs r2,#6
 1418 0094 8DE80600 	 stmia sp,{r1,r2}
 1419 0098 0290     	 str r0,[sp,#8]
 1420 009a 2246     	 mov r2,r4
 1421 009c B37A     	 ldrb r3,[r6,#10]
 1422 009e 3846     	 mov r0,r7
 1423 00a0 3146     	 mov r1,r6
 1424 00a2 FFF7FEFF 	 bl ip4_output_if
 1425 00a6 0446     	 mov r4,r0
 1426 00a8 00E0     	 b .L288
 1427              	.L292:
 1428 00aa FC24     	 movs r4,#252
 1429              	.L288:
 1430 00ac 3846     	 mov r0,r7
 1431 00ae FFF7FEFF 	 bl pbuf_free
 1432              	.L289:
 1433 00b2 2046     	 mov r0,r4
 1434 00b4 00E0     	 b .L283
 1435              	.L291:
 1436 00b6 FF20     	 movs r0,#255
 1437              	.L283:
 1438 00b8 40B2     	 sxtb r0,r0
 1439 00ba 04B0     	 add sp,sp,#16
 1440              	 
 1441 00bc BDE8F081 	 pop {r4,r5,r6,r7,r8,pc}
 1443              	 .ident "GCC: (GNU Tools for ARM Embedded Processors) 4.9.3 20141119 (release) [ARM/embedded-4_9-branch revision 218278]"
DEFINED SYMBOLS
                            *ABS*:00000000 tcp_out.c
    {standard input}:17     .text.tcp_pbuf_prealloc:00000000 $t
    {standard input}:21     .text.tcp_pbuf_prealloc:00000000 tcp_pbuf_prealloc
    {standard input}:65     .text.tcp_create_segment:00000000 $t
    {standard input}:69     .text.tcp_create_segment:00000000 tcp_create_segment
    {standard input}:137    .text.tcp_output_alloc_header.constprop.0:00000000 $t
    {standard input}:141    .text.tcp_output_alloc_header.constprop.0:00000000 tcp_output_alloc_header.constprop.0
    {standard input}:185    .text.tcp_write:00000000 $t
    {standard input}:190    .text.tcp_write:00000000 tcp_write
    {standard input}:599    .text.tcp_enqueue_flags:00000000 $t
    {standard input}:604    .text.tcp_enqueue_flags:00000000 tcp_enqueue_flags
    {standard input}:674    .text.tcp_send_fin:00000000 $t
    {standard input}:679    .text.tcp_send_fin:00000000 tcp_send_fin
    {standard input}:716    .text.tcp_send_empty_ack:00000000 $t
    {standard input}:721    .text.tcp_send_empty_ack:00000000 tcp_send_empty_ack
    {standard input}:777    .text.tcp_output:00000000 $t
    {standard input}:782    .text.tcp_output:00000000 tcp_output
    {standard input}:1097   .text.tcp_output:000002bc $d
    {standard input}:1101   .text.tcp_rst:00000000 $t
    {standard input}:1106   .text.tcp_rst:00000000 tcp_rst
    {standard input}:1172   .text.tcp_rexmit_rto:00000000 $t
    {standard input}:1177   .text.tcp_rexmit_rto:00000000 tcp_rexmit_rto
    {standard input}:1207   .text.tcp_rexmit:00000000 $t
    {standard input}:1212   .text.tcp_rexmit:00000000 tcp_rexmit
    {standard input}:1258   .text.tcp_rexmit_fast:00000000 $t
    {standard input}:1263   .text.tcp_rexmit_fast:00000000 tcp_rexmit_fast
    {standard input}:1299   .text.tcp_keepalive:00000000 $t
    {standard input}:1304   .text.tcp_keepalive:00000000 tcp_keepalive
    {standard input}:1349   .text.tcp_zero_window_probe:00000000 $t
    {standard input}:1354   .text.tcp_zero_window_probe:00000000 tcp_zero_window_probe

UNDEFINED SYMBOLS
pbuf_alloc
memp_malloc
pbuf_free
pbuf_header
tcp_seg_free
lwip_htons
lwip_htonl
memcpy
pbuf_clen
tcp_segs_free
pbuf_cat
ip4_route
ip4_output_if
tcp_eff_send_mss_impl
tcp_input_pcb
tcp_ticks
pbuf_copy_partial
